target datalayout = "e-m:e-p270:32:32-p271:32:32-p272:64:64-i64:64-i128:128-f80:128-n8:16:32:64-S128"
target triple = "x86_64-pc-linux-gnu"

%class.Node = type <{ ptr, ptr, ptr, i32, i32, i32, i32, i32, i32, i32, [4 x i8] }>
%class.CallNode = type { %class.SafePointNode.base, ptr, ptr, float, ptr, ptr }
%class.SafePointNode.base = type <{ %class.MultiNode.base, [4 x i8], ptr, ptr, %class.ReplacedNodes, i8 }>
%class.MultiNode.base = type { %class.Node.base }
%class.Node.base = type <{ ptr, ptr, ptr, i32, i32, i32, i32, i32, i32, i32 }>
%class.ReplacedNodes = type { ptr }

; Function Attrs: mustprogress nounwind uwtable
define linkonce_odr hidden noundef ptr @_ZNK8CallNode11entry_pointEv(ptr noundef nonnull align 8 dereferenceable(128) %0) #1 comdat align 2 {
  %2 = alloca ptr, align 8
  store ptr %0, ptr %2, align 8
  %3 = load ptr, ptr %2, align 8
  %4 = getelementptr inbounds %class.CallNode, ptr %3, i32 0, i32 2
  %5 = load ptr, ptr %4, align 8
  ret ptr %5
}

; Function Attrs: mustprogress nounwind uwtable
define linkonce_odr hidden noundef ptr @_ZNK4Node11as_CallLeafEv(ptr noundef nonnull align 8 dereferenceable(52) %0) #1 comdat align 2 {
  %2 = alloca ptr, align 8
  store ptr %0, ptr %2, align 8
  %3 = load ptr, ptr %2, align 8
  ret ptr %3
}

; Function Attrs: mustprogress nounwind uwtable
define linkonce_odr hidden noundef zeroext i1 @_ZNK4Node11is_CallLeafEv(ptr noundef nonnull align 8 dereferenceable(52) %0) #1 comdat align 2 {
  %2 = alloca ptr, align 8
  store ptr %0, ptr %2, align 8
  %3 = load ptr, ptr %2, align 8
  %4 = getelementptr inbounds %class.Node, ptr %3, i32 0, i32 8
  %5 = load i32, ptr %4, align 4
  %6 = and i32 %5, 63
  %7 = icmp eq i32 %6, 55
  ret i1 %7
}

; Function Attrs: mustprogress nounwind uwtable
define hidden noundef zeroext i1 @_ZN22ShenandoahBarrierSetC222is_shenandoah_lrb_callEP4Node(ptr noundef %0) #1 align 2 {
  %2 = alloca i1, align 1
  %3 = alloca ptr, align 8
  %4 = alloca ptr, align 8
  store ptr %0, ptr %3, align 8
  %5 = load ptr, ptr %3, align 8
  %6 = call noundef zeroext i1 @_ZNK4Node11is_CallLeafEv(ptr noundef nonnull align 8 dereferenceable(52) %5)
  br i1 %6, label %8, label %7

7:                                                ; preds = %1
  store i1 false, ptr %2, align 1
  br label %28

8:                                                ; preds = %1
  %9 = load ptr, ptr %3, align 8
  %10 = call noundef ptr @_ZNK4Node11as_CallLeafEv(ptr noundef nonnull align 8 dereferenceable(52) %9)
  %11 = call noundef ptr @_ZNK8CallNode11entry_pointEv(ptr noundef nonnull align 8 dereferenceable(128) %10)
  store ptr %11, ptr %4, align 8
  %12 = load ptr, ptr %4, align 8
  %13 = icmp eq ptr %12, @_ZN17ShenandoahRuntime29load_reference_barrier_strongEP7oopDescPS1_
  br i1 %13, label %26, label %14

14:                                               ; preds = %8
  %15 = load ptr, ptr %4, align 8
  %16 = icmp eq ptr %15, @_ZN17ShenandoahRuntime36load_reference_barrier_strong_narrowEP7oopDescP9narrowOop
  br i1 %16, label %26, label %17

17:                                               ; preds = %14
  %18 = load ptr, ptr %4, align 8
  %19 = icmp eq ptr %18, @_ZN17ShenandoahRuntime27load_reference_barrier_weakEP7oopDescPS1_
  br i1 %19, label %26, label %20

20:                                               ; preds = %17
  %21 = load ptr, ptr %4, align 8
  %22 = icmp eq ptr %21, @_ZN17ShenandoahRuntime34load_reference_barrier_weak_narrowEP7oopDescP9narrowOop
  br i1 %22, label %26, label %23

23:                                               ; preds = %20
  %24 = load ptr, ptr %4, align 8
  %25 = icmp eq ptr %24, @_ZN17ShenandoahRuntime30load_reference_barrier_phantomEP7oopDescPS1_
  br label %26

26:                                               ; preds = %23, %20, %17, %14, %8
  %27 = phi i1 [ true, %20 ], [ true, %17 ], [ true, %14 ], [ true, %8 ], [ %25, %23 ]
  store i1 %27, ptr %2, align 1
  br label %28

28:                                               ; preds = %26, %7
  %29 = load i1, ptr %2, align 1
  ret i1 %29
}