; Function Attrs: mustprogress nofree norecurse nosync nounwind willreturn memory(argmem: read) uwtable
define hidden noundef zeroext i1 @_ZN22ShenandoahBarrierSetC222is_shenandoah_lrb_callEP4Node(ptr nocapture noundef readonly %0) local_unnamed_addr #4 align 2 {
  %2 = getelementptr inbounds i8, ptr %0, i64 44
  %3 = load i32, ptr %2, align 4
  %4 = and i32 %3, 63
  %5 = icmp eq i32 %4, 55
  br i1 %5, label %6, label %14

6:                                                ; preds = %1
  %7 = getelementptr inbounds i8, ptr %0, i64 96
  %8 = load ptr, ptr %7, align 8
  %9 = icmp eq ptr %8, @_ZN17ShenandoahRuntime29load_reference_barrier_strongEP7oopDescPS1_
  %10 = icmp eq ptr %8, @_ZN17ShenandoahRuntime36load_reference_barrier_strong_narrowEP7oopDescP9narrowOop
  %or.cond = or i1 %9, %10
  %11 = icmp eq ptr %8, @_ZN17ShenandoahRuntime27load_reference_barrier_weakEP7oopDescPS1_
  %or.cond3 = or i1 %11, %or.cond
  %12 = icmp eq ptr %8, @_ZN17ShenandoahRuntime34load_reference_barrier_weak_narrowEP7oopDescP9narrowOop
  %or.cond5 = or i1 %12, %or.cond3
  %13 = icmp eq ptr %8, @_ZN17ShenandoahRuntime30load_reference_barrier_phantomEP7oopDescPS1_
  %spec.select = or i1 %13, %or.cond5
  br label %14

14:                                               ; preds = %1, %6
  %.0 = phi i1 [ %spec.select, %6 ], [ false, %1 ]
  ret i1 %.0
}